; ModuleID = '49/1184.c'
source_filename = "49/1184.c"
target datalayout = "e-m:e-p270:32:32-p271:32:32-p272:64:64-i64:64-f80:128-n8:16:32:64-S128"
target triple = "x86_64-pc-linux-gnu"

@.str = private unnamed_addr constant [3 x i8] c"%c\00", align 1
@.str.1 = private unnamed_addr constant [2 x i8] c"\0A\00", align 1

; Function Attrs: noinline nounwind uwtable
define dso_local i32 @main() #0 {
  %1 = alloca i32, align 4
  %2 = alloca i32, align 4
  %3 = alloca i32, align 4
  %4 = alloca i32, align 4
  %5 = alloca i32, align 4
  %6 = alloca i32, align 4
  %7 = alloca i32, align 4
  %8 = alloca [500 x i8], align 16
  store i32 0, i32* %1, align 4
  store i32 0, i32* %7, align 4
  store i32 0, i32* %3, align 4
  br label %9

9:                                                ; preds = %25, %0
  %10 = load i32, i32* %3, align 4
  %11 = icmp slt i32 %10, 500
  br i1 %11, label %12, label %28

12:                                               ; preds = %9
  %13 = load i32, i32* %3, align 4
  %14 = sext i32 %13 to i64
  %15 = getelementptr inbounds [500 x i8], [500 x i8]* %8, i64 0, i64 %14
  %16 = call i32 (i8*, ...) @__isoc99_scanf(i8* getelementptr inbounds ([3 x i8], [3 x i8]* @.str, i64 0, i64 0), i8* %15)
  %17 = load i32, i32* %3, align 4
  %18 = sext i32 %17 to i64
  %19 = getelementptr inbounds [500 x i8], [500 x i8]* %8, i64 0, i64 %18
  %20 = load i8, i8* %19, align 1
  %21 = sext i8 %20 to i32
  %22 = icmp eq i32 %21, 10
  br i1 %22, label %23, label %24

23:                                               ; preds = %12
  br label %28

24:                                               ; preds = %12
  br label %25

25:                                               ; preds = %24
  %26 = load i32, i32* %3, align 4
  %27 = add nsw i32 %26, 1
  store i32 %27, i32* %3, align 4
  br label %9

28:                                               ; preds = %23, %9
  store i32 2, i32* %5, align 4
  br label %29

29:                                               ; preds = %100, %28
  %30 = load i32, i32* %5, align 4
  %31 = load i32, i32* %3, align 4
  %32 = icmp sle i32 %30, %31
  br i1 %32, label %33, label %103

33:                                               ; preds = %29
  store i32 0, i32* %4, align 4
  br label %34

34:                                               ; preds = %96, %33
  %35 = load i32, i32* %4, align 4
  %36 = load i32, i32* %3, align 4
  %37 = load i32, i32* %5, align 4
  %38 = sub nsw i32 %36, %37
  %39 = icmp sle i32 %35, %38
  br i1 %39, label %40, label %99

40:                                               ; preds = %34
  %41 = load i32, i32* %4, align 4
  store i32 %41, i32* %2, align 4
  store i32 0, i32* %6, align 4
  br label %42

42:                                               ; preds = %69, %40
  %43 = load i32, i32* %6, align 4
  %44 = load i32, i32* %5, align 4
  %45 = sdiv i32 %44, 2
  %46 = icmp slt i32 %43, %45
  br i1 %46, label %47, label %72

47:                                               ; preds = %42
  %48 = load i32, i32* %4, align 4
  %49 = load i32, i32* %6, align 4
  %50 = add nsw i32 %48, %49
  %51 = sext i32 %50 to i64
  %52 = getelementptr inbounds [500 x i8], [500 x i8]* %8, i64 0, i64 %51
  %53 = load i8, i8* %52, align 1
  %54 = sext i8 %53 to i32
  %55 = load i32, i32* %4, align 4
  %56 = load i32, i32* %5, align 4
  %57 = add nsw i32 %55, %56
  %58 = sub nsw i32 %57, 1
  %59 = load i32, i32* %6, align 4
  %60 = sub nsw i32 %58, %59
  %61 = sext i32 %60 to i64
  %62 = getelementptr inbounds [500 x i8], [500 x i8]* %8, i64 0, i64 %61
  %63 = load i8, i8* %62, align 1
  %64 = sext i8 %63 to i32
  %65 = icmp eq i32 %54, %64
  br i1 %65, label %66, label %67

66:                                               ; preds = %47
  store i32 0, i32* %7, align 4
  br label %68

67:                                               ; preds = %47
  store i32 1, i32* %7, align 4
  br label %72

68:                                               ; preds = %66
  br label %69

69:                                               ; preds = %68
  %70 = load i32, i32* %6, align 4
  %71 = add nsw i32 %70, 1
  store i32 %71, i32* %6, align 4
  br label %42

72:                                               ; preds = %67, %42
  %73 = load i32, i32* %7, align 4
  %74 = icmp eq i32 %73, 0
  br i1 %74, label %75, label %94

75:                                               ; preds = %72
  %76 = load i32, i32* %4, align 4
  store i32 %76, i32* %2, align 4
  br label %77

77:                                               ; preds = %90, %75
  %78 = load i32, i32* %2, align 4
  %79 = load i32, i32* %4, align 4
  %80 = load i32, i32* %5, align 4
  %81 = add nsw i32 %79, %80
  %82 = icmp slt i32 %78, %81
  br i1 %82, label %83, label %93

83:                                               ; preds = %77
  %84 = load i32, i32* %2, align 4
  %85 = sext i32 %84 to i64
  %86 = getelementptr inbounds [500 x i8], [500 x i8]* %8, i64 0, i64 %85
  %87 = load i8, i8* %86, align 1
  %88 = sext i8 %87 to i32
  %89 = call i32 (i8*, ...) @printf(i8* getelementptr inbounds ([3 x i8], [3 x i8]* @.str, i64 0, i64 0), i32 %88)
  br label %90

90:                                               ; preds = %83
  %91 = load i32, i32* %2, align 4
  %92 = add nsw i32 %91, 1
  store i32 %92, i32* %2, align 4
  br label %77

93:                                               ; preds = %77
  br label %94

94:                                               ; preds = %93, %72
  %95 = call i32 (i8*, ...) @printf(i8* getelementptr inbounds ([2 x i8], [2 x i8]* @.str.1, i64 0, i64 0))
  store i32 0, i32* %6, align 4
  br label %96

96:                                               ; preds = %94
  %97 = load i32, i32* %4, align 4
  %98 = add nsw i32 %97, 1
  store i32 %98, i32* %4, align 4
  br label %34

99:                                               ; preds = %34
  store i32 0, i32* %4, align 4
  br label %100

100:                                              ; preds = %99
  %101 = load i32, i32* %5, align 4
  %102 = add nsw i32 %101, 1
  store i32 %102, i32* %5, align 4
  br label %29

103:                                              ; preds = %29
  ret i32 0
}

declare dso_local i32 @__isoc99_scanf(i8*, ...) #1

declare dso_local i32 @printf(i8*, ...) #1


!llvm.module.flags = !{!0}
!llvm.ident = !{!1}

!0 = !{i32 1, !"wchar_size", i32 4}
!1 = !{!"clang version 10.0.0-4ubuntu1 "}
